target datalayout = "e-m:e-p270:32:32-p271:32:32-p272:64:64-i64:64-i128:128-f80:128-n8:16:32:64-S128"
target triple = "x86_64-pc-linux-gnu"

%struct.lookup_dir_st = type { ptr, ptr, ptr }
%struct.lookup_dir_entry_st = type { ptr, i32, ptr }

@.str.1 = private unnamed_addr constant [32 x i8] c"../openssl/crypto/x509/by_dir.c\00", align 1
@__func__.add_cert_dir = private unnamed_addr constant [13 x i8] c"add_cert_dir\00", align 1

; Function Attrs: inlinehint nounwind uwtable
define internal void @sk_BY_DIR_HASH_pop_free(ptr noundef %0, ptr noundef %1) #3 {
  %3 = alloca ptr, align 8
  %4 = alloca ptr, align 8
  store ptr %0, ptr %3, align 8, !tbaa !66
  store ptr %1, ptr %4, align 8, !tbaa !65
  %5 = load ptr, ptr %3, align 8, !tbaa !66
  %6 = load ptr, ptr %4, align 8, !tbaa !65
  call void @OPENSSL_sk_pop_free(ptr noundef %5, ptr noundef %6)
  ret void
}

; Function Attrs: inlinehint nounwind uwtable
define internal i32 @sk_BY_DIR_ENTRY_push(ptr noundef %0, ptr noundef %1) #3 {
  %3 = alloca ptr, align 8
  %4 = alloca ptr, align 8
  store ptr %0, ptr %3, align 8, !tbaa !64
  store ptr %1, ptr %4, align 8, !tbaa !38
  %5 = load ptr, ptr %3, align 8, !tbaa !64
  %6 = load ptr, ptr %4, align 8, !tbaa !38
  %7 = call i32 @OPENSSL_sk_push(ptr noundef %5, ptr noundef %6)
  ret i32 %7
}

; Function Attrs: nounwind uwtable
define internal void @by_dir_entry_free(ptr noundef %0) #0 {
  %2 = alloca ptr, align 8
  store ptr %0, ptr %2, align 8, !tbaa !38
  %3 = load ptr, ptr %2, align 8, !tbaa !38
  %4 = getelementptr inbounds nuw %struct.lookup_dir_entry_st, ptr %3, i32 0, i32 0
  %5 = load ptr, ptr %4, align 8, !tbaa !40
  call void @CRYPTO_free(ptr noundef %5, ptr noundef @.str.1, i32 noundef 151)
  %6 = load ptr, ptr %2, align 8, !tbaa !38
  %7 = getelementptr inbounds nuw %struct.lookup_dir_entry_st, ptr %6, i32 0, i32 2
  %8 = load ptr, ptr %7, align 8, !tbaa !43
  call void @sk_BY_DIR_HASH_pop_free(ptr noundef %8, ptr noundef @by_dir_hash_free)
  %9 = load ptr, ptr %2, align 8, !tbaa !38
  call void @CRYPTO_free(ptr noundef %9, ptr noundef @.str.1, i32 noundef 153)
  ret void
}

; Function Attrs: inlinehint nounwind uwtable
define internal ptr @sk_BY_DIR_HASH_new(ptr noundef %0) #3 {
  %2 = alloca ptr, align 8
  store ptr %0, ptr %2, align 8, !tbaa !65
  %3 = load ptr, ptr %2, align 8, !tbaa !65
  %4 = call ptr @OPENSSL_sk_new(ptr noundef %3)
  ret ptr %4
}

; Function Attrs: inlinehint nounwind uwtable
define internal ptr @sk_BY_DIR_ENTRY_new_null() #3 {
  %1 = call ptr @OPENSSL_sk_new_null()
  ret ptr %1
}

; Function Attrs: inlinehint nounwind uwtable
define internal ptr @sk_BY_DIR_ENTRY_value(ptr noundef %0, i32 noundef %1) #3 {
  %3 = alloca ptr, align 8
  %4 = alloca i32, align 4
  store ptr %0, ptr %3, align 8, !tbaa !64
  store i32 %1, ptr %4, align 4, !tbaa !21
  %5 = load ptr, ptr %3, align 8, !tbaa !64
  %6 = load i32, ptr %4, align 4, !tbaa !21
  %7 = call ptr @OPENSSL_sk_value(ptr noundef %5, i32 noundef %6)
  ret ptr %7
}

; Function Attrs: inlinehint nounwind uwtable
define internal i32 @sk_BY_DIR_ENTRY_num(ptr noundef %0) #3 {
  %2 = alloca ptr, align 8
  store ptr %0, ptr %2, align 8, !tbaa !64
  %3 = load ptr, ptr %2, align 8, !tbaa !64
  %4 = call i32 @OPENSSL_sk_num(ptr noundef %3)
  ret i32 %4
}

; Function Attrs: nounwind uwtable
define internal i32 @add_cert_dir(ptr noundef %0, ptr noundef %1, i32 noundef %2) #0 {
  %4 = alloca i32, align 4
  %5 = alloca ptr, align 8
  %6 = alloca ptr, align 8
  %7 = alloca i32, align 4
  %8 = alloca i32, align 4
  %9 = alloca i64, align 8
  %10 = alloca ptr, align 8
  %11 = alloca ptr, align 8
  %12 = alloca ptr, align 8
  %13 = alloca i32, align 4
  %14 = alloca ptr, align 8
  store ptr %0, ptr %5, align 8, !tbaa !8
  store ptr %1, ptr %6, align 8, !tbaa !22
  store i32 %2, ptr %7, align 4, !tbaa !21
  call void @llvm.lifetime.start.p0(i64 4, ptr %8) #7
  call void @llvm.lifetime.start.p0(i64 8, ptr %9) #7
  call void @llvm.lifetime.start.p0(i64 8, ptr %10) #7
  call void @llvm.lifetime.start.p0(i64 8, ptr %11) #7
  call void @llvm.lifetime.start.p0(i64 8, ptr %12) #7
  %15 = load ptr, ptr %6, align 8, !tbaa !22
  %16 = icmp eq ptr %15, null
  br i1 %16, label %22, label %17

17:                                               ; preds = %3
  %18 = load ptr, ptr %6, align 8, !tbaa !22
  %19 = load i8, ptr %18, align 1, !tbaa !37
  %20 = sext i8 %19 to i32
  %21 = icmp eq i32 %20, 0
  br i1 %21, label %22, label %23

22:                                               ; preds = %17, %3
  call void @ERR_new()
  call void @ERR_set_debug(ptr noundef @.str.1, i32 noundef 173, ptr noundef @__func__.add_cert_dir)
  call void (i32, i32, ptr, ...) @ERR_set_error(i32 noundef 11, i32 noundef 113, ptr noundef null)
  store i32 0, ptr %4, align 4
  store i32 1, ptr %13, align 4
  br label %153

23:                                               ; preds = %17
  %24 = load ptr, ptr %6, align 8, !tbaa !22
  store ptr %24, ptr %10, align 8, !tbaa !22
  %25 = load ptr, ptr %10, align 8, !tbaa !22
  store ptr %25, ptr %12, align 8, !tbaa !22
  br label %26

26:                                               ; preds = %146, %23
  %27 = load ptr, ptr %12, align 8, !tbaa !22
  %28 = load i8, ptr %27, align 1, !tbaa !37
  %29 = sext i8 %28 to i32
  %30 = icmp eq i32 %29, 58
  br i1 %30, label %36, label %31

31:                                               ; preds = %26
  %32 = load ptr, ptr %12, align 8, !tbaa !22
  %33 = load i8, ptr %32, align 1, !tbaa !37
  %34 = sext i8 %33 to i32
  %35 = icmp eq i32 %34, 0
  br i1 %35, label %36, label %145

36:                                               ; preds = %31, %26
  call void @llvm.lifetime.start.p0(i64 8, ptr %14) #7
  %37 = load ptr, ptr %10, align 8, !tbaa !22
  store ptr %37, ptr %11, align 8, !tbaa !22
  %38 = load ptr, ptr %12, align 8, !tbaa !22
  %39 = getelementptr inbounds i8, ptr %38, i64 1
  store ptr %39, ptr %10, align 8, !tbaa !22
  %40 = load ptr, ptr %12, align 8, !tbaa !22
  %41 = load ptr, ptr %11, align 8, !tbaa !22
  %42 = ptrtoint ptr %40 to i64
  %43 = ptrtoint ptr %41 to i64
  %44 = sub i64 %42, %43
  store i64 %44, ptr %9, align 8, !tbaa !24
  %45 = load i64, ptr %9, align 8, !tbaa !24
  %46 = icmp eq i64 %45, 0
  br i1 %46, label %47, label %48

47:                                               ; preds = %36
  store i32 3, ptr %13, align 4
  br label %142

48:                                               ; preds = %36
  store i32 0, ptr %8, align 4, !tbaa !21
  br label %49

49:                                               ; preds = %78, %48
  %50 = load i32, ptr %8, align 4, !tbaa !21
  %51 = load ptr, ptr %5, align 8, !tbaa !8
  %52 = getelementptr inbounds nuw %struct.lookup_dir_st, ptr %51, i32 0, i32 1
  %53 = load ptr, ptr %52, align 8, !tbaa !14
  %54 = call i32 @sk_BY_DIR_ENTRY_num(ptr noundef %53)
  %55 = icmp slt i32 %50, %54
  br i1 %55, label %56, label %81

56:                                               ; preds = %49
  %57 = load ptr, ptr %5, align 8, !tbaa !8
  %58 = getelementptr inbounds nuw %struct.lookup_dir_st, ptr %57, i32 0, i32 1
  %59 = load ptr, ptr %58, align 8, !tbaa !14
  %60 = load i32, ptr %8, align 4, !tbaa !21
  %61 = call ptr @sk_BY_DIR_ENTRY_value(ptr noundef %59, i32 noundef %60)
  store ptr %61, ptr %14, align 8, !tbaa !38
  %62 = load ptr, ptr %14, align 8, !tbaa !38
  %63 = getelementptr inbounds nuw %struct.lookup_dir_entry_st, ptr %62, i32 0, i32 0
  %64 = load ptr, ptr %63, align 8, !tbaa !40
  %65 = call i64 @strlen(ptr noundef %64) #8
  %66 = load i64, ptr %9, align 8, !tbaa !24
  %67 = icmp eq i64 %65, %66
  br i1 %67, label %68, label %77

68:                                               ; preds = %56
  %69 = load ptr, ptr %14, align 8, !tbaa !38
  %70 = getelementptr inbounds nuw %struct.lookup_dir_entry_st, ptr %69, i32 0, i32 0
  %71 = load ptr, ptr %70, align 8, !tbaa !40
  %72 = load ptr, ptr %11, align 8, !tbaa !22
  %73 = load i64, ptr %9, align 8, !tbaa !24
  %74 = call i32 @strncmp(ptr noundef %71, ptr noundef %72, i64 noundef %73) #8
  %75 = icmp eq i32 %74, 0
  br i1 %75, label %76, label %77

76:                                               ; preds = %68
  br label %81

77:                                               ; preds = %68, %56
  br label %78

78:                                               ; preds = %77
  %79 = load i32, ptr %8, align 4, !tbaa !21
  %80 = add nsw i32 %79, 1
  store i32 %80, ptr %8, align 4, !tbaa !21
  br label %49, !llvm.loop !67

81:                                               ; preds = %76, %49
  %82 = load i32, ptr %8, align 4, !tbaa !21
  %83 = load ptr, ptr %5, align 8, !tbaa !8
  %84 = getelementptr inbounds nuw %struct.lookup_dir_st, ptr %83, i32 0, i32 1
  %85 = load ptr, ptr %84, align 8, !tbaa !14
  %86 = call i32 @sk_BY_DIR_ENTRY_num(ptr noundef %85)
  %87 = icmp slt i32 %82, %86
  br i1 %87, label %88, label %89

88:                                               ; preds = %81
  store i32 3, ptr %13, align 4
  br label %142

89:                                               ; preds = %81
  %90 = load ptr, ptr %5, align 8, !tbaa !8
  %91 = getelementptr inbounds nuw %struct.lookup_dir_st, ptr %90, i32 0, i32 1
  %92 = load ptr, ptr %91, align 8, !tbaa !14
  %93 = icmp eq ptr %92, null
  br i1 %93, label %94, label %104

94:                                               ; preds = %89
  %95 = call ptr @sk_BY_DIR_ENTRY_new_null()
  %96 = load ptr, ptr %5, align 8, !tbaa !8
  %97 = getelementptr inbounds nuw %struct.lookup_dir_st, ptr %96, i32 0, i32 1
  store ptr %95, ptr %97, align 8, !tbaa !14
  %98 = load ptr, ptr %5, align 8, !tbaa !8
  %99 = getelementptr inbounds nuw %struct.lookup_dir_st, ptr %98, i32 0, i32 1
  %100 = load ptr, ptr %99, align 8, !tbaa !14
  %101 = icmp ne ptr %100, null
  br i1 %101, label %103, label %102

102:                                              ; preds = %94
  call void @ERR_new()
  call void @ERR_set_debug(ptr noundef @.str.1, i32 noundef 198, ptr noundef @__func__.add_cert_dir)
  call void (i32, i32, ptr, ...) @ERR_set_error(i32 noundef 11, i32 noundef 524303, ptr noundef null)
  store i32 0, ptr %4, align 4
  store i32 1, ptr %13, align 4
  br label %142

103:                                              ; preds = %94
  br label %104

104:                                              ; preds = %103, %89
  %105 = call noalias ptr @CRYPTO_malloc(i64 noundef 24, ptr noundef @.str.1, i32 noundef 202)
  store ptr %105, ptr %14, align 8, !tbaa !38
  %106 = load ptr, ptr %14, align 8, !tbaa !38
  %107 = icmp eq ptr %106, null
  br i1 %107, label %108, label %109

108:                                              ; preds = %104
  store i32 0, ptr %4, align 4
  store i32 1, ptr %13, align 4
  br label %142

109:                                              ; preds = %104
  %110 = load i32, ptr %7, align 4, !tbaa !21
  %111 = load ptr, ptr %14, align 8, !tbaa !38
  %112 = getelementptr inbounds nuw %struct.lookup_dir_entry_st, ptr %111, i32 0, i32 1
  store i32 %110, ptr %112, align 8, !tbaa !52
  %113 = call ptr @sk_BY_DIR_HASH_new(ptr noundef @by_dir_hash_cmp)
  %114 = load ptr, ptr %14, align 8, !tbaa !38
  %115 = getelementptr inbounds nuw %struct.lookup_dir_entry_st, ptr %114, i32 0, i32 2
  store ptr %113, ptr %115, align 8, !tbaa !43
  %116 = load ptr, ptr %11, align 8, !tbaa !22
  %117 = load i64, ptr %9, align 8, !tbaa !24
  %118 = call noalias ptr @CRYPTO_strndup(ptr noundef %116, i64 noundef %117, ptr noundef @.str.1, i32 noundef 207)
  %119 = load ptr, ptr %14, align 8, !tbaa !38
  %120 = getelementptr inbounds nuw %struct.lookup_dir_entry_st, ptr %119, i32 0, i32 0
  store ptr %118, ptr %120, align 8, !tbaa !40
  %121 = load ptr, ptr %14, align 8, !tbaa !38
  %122 = getelementptr inbounds nuw %struct.lookup_dir_entry_st, ptr %121, i32 0, i32 0
  %123 = load ptr, ptr %122, align 8, !tbaa !40
  %124 = icmp eq ptr %123, null
  br i1 %124, label %130, label %125

125:                                              ; preds = %109
  %126 = load ptr, ptr %14, align 8, !tbaa !38
  %127 = getelementptr inbounds nuw %struct.lookup_dir_entry_st, ptr %126, i32 0, i32 2
  %128 = load ptr, ptr %127, align 8, !tbaa !43
  %129 = icmp eq ptr %128, null
  br i1 %129, label %130, label %132

130:                                              ; preds = %125, %109
  %131 = load ptr, ptr %14, align 8, !tbaa !38
  call void @by_dir_entry_free(ptr noundef %131)
  store i32 0, ptr %4, align 4
  store i32 1, ptr %13, align 4
  br label %142

132:                                              ; preds = %125
  %133 = load ptr, ptr %5, align 8, !tbaa !8
  %134 = getelementptr inbounds nuw %struct.lookup_dir_st, ptr %133, i32 0, i32 1
  %135 = load ptr, ptr %134, align 8, !tbaa !14
  %136 = load ptr, ptr %14, align 8, !tbaa !38
  %137 = call i32 @sk_BY_DIR_ENTRY_push(ptr noundef %135, ptr noundef %136)
  %138 = icmp ne i32 %137, 0
  br i1 %138, label %141, label %139

139:                                              ; preds = %132
  %140 = load ptr, ptr %14, align 8, !tbaa !38
  call void @by_dir_entry_free(ptr noundef %140)
  call void @ERR_new()
  call void @ERR_set_debug(ptr noundef @.str.1, i32 noundef 214, ptr noundef @__func__.add_cert_dir)
  call void (i32, i32, ptr, ...) @ERR_set_error(i32 noundef 11, i32 noundef 524303, ptr noundef null)
  store i32 0, ptr %4, align 4
  store i32 1, ptr %13, align 4
  br label %142

141:                                              ; preds = %132
  store i32 0, ptr %13, align 4
  br label %142

142:                                              ; preds = %141, %139, %130, %108, %102, %88, %47
  call void @llvm.lifetime.end.p0(i64 8, ptr %14) #7
  %143 = load i32, ptr %13, align 4
  switch i32 %143, label %153 [
    i32 0, label %144
    i32 3, label %146
  ]

144:                                              ; preds = %142
  br label %145

145:                                              ; preds = %144, %31
  br label %146

146:                                              ; preds = %145, %142
  %147 = load ptr, ptr %12, align 8, !tbaa !22
  %148 = getelementptr inbounds nuw i8, ptr %147, i32 1
  store ptr %148, ptr %12, align 8, !tbaa !22
  %149 = load i8, ptr %147, align 1, !tbaa !37
  %150 = sext i8 %149 to i32
  %151 = icmp ne i32 %150, 0
  br i1 %151, label %26, label %152, !llvm.loop !68

152:                                              ; preds = %146
  store i32 1, ptr %4, align 4
  store i32 1, ptr %13, align 4
  br label %153

153:                                              ; preds = %152, %142, %22
  call void @llvm.lifetime.end.p0(i64 8, ptr %12) #7
  call void @llvm.lifetime.end.p0(i64 8, ptr %11) #7
  call void @llvm.lifetime.end.p0(i64 8, ptr %10) #7
  call void @llvm.lifetime.end.p0(i64 8, ptr %9) #7
  call void @llvm.lifetime.end.p0(i64 4, ptr %8) #7
  %154 = load i32, ptr %4, align 4
  ret i32 %154
}