; Function Attrs: nounwind uwtable
define internal fastcc range(i32 0, 2) i32 @add_cert_dir(ptr noundef captures(none) %0, ptr noundef %1, i32 noundef %2) unnamed_addr #1 {
  %4 = icmp eq ptr %1, null
  br i1 %4, label %9, label %5

5:                                                ; preds = %3
  %6 = load i8, ptr %1, align 1, !tbaa !19
  %7 = icmp eq i8 %6, 0
  br i1 %7, label %9, label %.preheader53

.preheader53:                                     ; preds = %5
  %8 = getelementptr inbounds nuw i8, ptr %0, i64 8
  br label %11

9:                                                ; preds = %5, %3
  tail call void @ERR_new() #8
  tail call void @ERR_set_debug(ptr noundef nonnull @.str.1, i32 noundef 173, ptr noundef nonnull @__func__.add_cert_dir) #8
  tail call void (i32, i32, ptr, ...) @ERR_set_error(i32 noundef 11, i32 noundef 113, ptr noundef null) #8
  br label %.thread

thread-pre-split:                                 ; preds = %64
  %10 = getelementptr inbounds nuw i8, ptr %.041, i64 1
  %.pr = load i8, ptr %10, align 1, !tbaa !19
  br label %11

11:                                               ; preds = %.preheader53, %thread-pre-split
  %12 = phi i8 [ %.pr, %thread-pre-split ], [ %6, %.preheader53 ]
  %.043 = phi ptr [ %.144, %thread-pre-split ], [ %1, %.preheader53 ]
  %.041 = phi ptr [ %10, %thread-pre-split ], [ %1, %.preheader53 ]
  switch i8 %12, label %64 [
    i8 58, label %13
    i8 0, label %13
  ]

13:                                               ; preds = %11, %11
  %14 = getelementptr inbounds nuw i8, ptr %.041, i64 1
  %15 = ptrtoint ptr %.041 to i64
  %16 = ptrtoint ptr %.043 to i64
  %17 = sub i64 %15, %16
  %18 = icmp eq ptr %.041, %.043
  br i1 %18, label %64, label %.preheader

.preheader:                                       ; preds = %13
  %19 = load ptr, ptr %8, align 8, !tbaa !10
  %20 = tail call i32 @OPENSSL_sk_num(ptr noundef %19) #8
  %21 = icmp sgt i32 %20, 0
  br i1 %21, label %.lr.ph, label %._crit_edge

.lr.ph:                                           ; preds = %.preheader, %30
  %.04560 = phi i32 [ %31, %30 ], [ 0, %.preheader ]
  %22 = load ptr, ptr %8, align 8, !tbaa !10
  %23 = tail call ptr @OPENSSL_sk_value(ptr noundef %22, i32 noundef %.04560) #8
  %24 = load ptr, ptr %23, align 8, !tbaa !21
  %25 = tail call i64 @strlen(ptr noundef nonnull dereferenceable(1) %24) #9
  %26 = icmp eq i64 %25, %17
  br i1 %26, label %27, label %30

27:                                               ; preds = %.lr.ph
  %28 = tail call i32 @strncmp(ptr noundef nonnull %24, ptr noundef %.043, i64 noundef %17) #9
  %29 = icmp eq i32 %28, 0
  br i1 %29, label %._crit_edge, label %30

30:                                               ; preds = %.lr.ph, %27
  %31 = add nuw nsw i32 %.04560, 1
  %32 = load ptr, ptr %8, align 8, !tbaa !10
  %33 = tail call i32 @OPENSSL_sk_num(ptr noundef %32) #8
  %34 = icmp slt i32 %31, %33
  br i1 %34, label %.lr.ph, label %._crit_edge, !llvm.loop !46

._crit_edge:                                      ; preds = %30, %27, %.preheader
  %.045.lcssa = phi i32 [ 0, %.preheader ], [ %.04560, %27 ], [ %31, %30 ]
  %35 = load ptr, ptr %8, align 8, !tbaa !10
  %36 = tail call i32 @OPENSSL_sk_num(ptr noundef %35) #8
  %37 = icmp slt i32 %.045.lcssa, %36
  br i1 %37, label %64, label %38

38:                                               ; preds = %._crit_edge
  %39 = load ptr, ptr %8, align 8, !tbaa !10
  %40 = icmp eq ptr %39, null
  br i1 %40, label %41, label %44

41:                                               ; preds = %38
  %42 = tail call ptr @OPENSSL_sk_new_null() #8
  store ptr %42, ptr %8, align 8, !tbaa !10
  %.not = icmp eq ptr %42, null
  br i1 %.not, label %43, label %44

43:                                               ; preds = %41
  tail call void @ERR_new() #8
  tail call void @ERR_set_debug(ptr noundef nonnull @.str.1, i32 noundef 198, ptr noundef nonnull @__func__.add_cert_dir) #8
  tail call void (i32, i32, ptr, ...) @ERR_set_error(i32 noundef 11, i32 noundef 524303, ptr noundef null) #8
  br label %.thread

44:                                               ; preds = %41, %38
  %45 = tail call noalias ptr @CRYPTO_malloc(i64 noundef 24, ptr noundef nonnull @.str.1, i32 noundef 202) #8
  %46 = icmp eq ptr %45, null
  br i1 %46, label %.thread, label %47

47:                                               ; preds = %44
  %48 = getelementptr inbounds nuw i8, ptr %45, i64 8
  store i32 %2, ptr %48, align 8, !tbaa !33
  %49 = tail call ptr @OPENSSL_sk_new(ptr noundef nonnull @by_dir_hash_cmp) #8
  %50 = getelementptr inbounds nuw i8, ptr %45, i64 16
  store ptr %49, ptr %50, align 8, !tbaa !25
  %51 = tail call noalias ptr @CRYPTO_strndup(ptr noundef %.043, i64 noundef %17, ptr noundef nonnull @.str.1, i32 noundef 207) #8
  store ptr %51, ptr %45, align 8, !tbaa !21
  %52 = icmp eq ptr %51, null
  br i1 %52, label %56, label %53

53:                                               ; preds = %47
  %54 = load ptr, ptr %50, align 8, !tbaa !25
  %55 = icmp eq ptr %54, null
  br i1 %55, label %56, label %58

56:                                               ; preds = %53, %47
  tail call void @CRYPTO_free(ptr noundef %51, ptr noundef nonnull @.str.1, i32 noundef 151) #8
  %57 = load ptr, ptr %50, align 8, !tbaa !25
  tail call void @OPENSSL_sk_pop_free(ptr noundef %57, ptr noundef nonnull @by_dir_hash_free) #8
  tail call void @CRYPTO_free(ptr noundef nonnull %45, ptr noundef nonnull @.str.1, i32 noundef 153) #8
  br label %.thread

58:                                               ; preds = %53
  %59 = load ptr, ptr %8, align 8, !tbaa !10
  %60 = tail call i32 @OPENSSL_sk_push(ptr noundef %59, ptr noundef nonnull %45) #8
  %.not50 = icmp eq i32 %60, 0
  br i1 %.not50, label %61, label %64

61:                                               ; preds = %58
  %62 = load ptr, ptr %45, align 8, !tbaa !21
  tail call void @CRYPTO_free(ptr noundef %62, ptr noundef nonnull @.str.1, i32 noundef 151) #8
  %63 = load ptr, ptr %50, align 8, !tbaa !25
  tail call void @OPENSSL_sk_pop_free(ptr noundef %63, ptr noundef nonnull @by_dir_hash_free) #8
  tail call void @CRYPTO_free(ptr noundef nonnull %45, ptr noundef nonnull @.str.1, i32 noundef 153) #8
  tail call void @ERR_new() #8
  tail call void @ERR_set_debug(ptr noundef nonnull @.str.1, i32 noundef 214, ptr noundef nonnull @__func__.add_cert_dir) #8
  tail call void (i32, i32, ptr, ...) @ERR_set_error(i32 noundef 11, i32 noundef 524303, ptr noundef null) #8
  br label %.thread

64:                                               ; preds = %13, %._crit_edge, %58, %11
  %.144 = phi ptr [ %.043, %11 ], [ %14, %58 ], [ %14, %._crit_edge ], [ %14, %13 ]
  %65 = load i8, ptr %.041, align 1, !tbaa !19
  %.not51 = icmp eq i8 %65, 0
  br i1 %.not51, label %.thread, label %thread-pre-split, !llvm.loop !47

.thread:                                          ; preds = %44, %64, %43, %61, %56, %9
  %.042 = phi i32 [ 0, %9 ], [ 0, %56 ], [ 0, %61 ], [ 0, %43 ], [ 0, %44 ], [ 1, %64 ]
  ret i32 %.042
}